target datalayout = "e-m:e-p270:32:32-p271:32:32-p272:64:64-i64:64-i128:128-f80:128-n8:16:32:64-S128"
target triple = "x86_64-pc-linux-gnu"

%struct.AVFilterContext = type { ptr, ptr, ptr, ptr, ptr, i32, ptr, ptr, i32, ptr, ptr, i32, i32, ptr, ptr, ptr, ptr, i32, ptr, i32, i32 }
%struct.ShowWavesContext = type { ptr, i32, i32, %struct.AVRational, ptr, i32, ptr, ptr, i32, i32, ptr, %struct.AVRational, %struct.AVRational, %struct.AVRational, i32, i32, i32, i32, i32, i32, ptr, ptr, ptr, i32, ptr, ptr, i64, ptr }
%struct.AVRational = type { i32, i32 }
%struct.frame_node = type { ptr, ptr }

; Function Attrs: cold nounwind optsize uwtable
define internal void @uninit(ptr noundef %0) #0 {
  %2 = alloca ptr, align 8
  %3 = alloca ptr, align 8
  %4 = alloca ptr, align 8
  %5 = alloca ptr, align 8
  store ptr %0, ptr %2, align 8, !tbaa !4
  call void @llvm.lifetime.start.p0(i64 8, ptr %3) #13
  %6 = load ptr, ptr %2, align 8, !tbaa !4
  %7 = getelementptr inbounds nuw %struct.AVFilterContext, ptr %6, i32 0, i32 9
  %8 = load ptr, ptr %7, align 8, !tbaa !9
  store ptr %8, ptr %3, align 8, !tbaa !22
  %9 = load ptr, ptr %3, align 8, !tbaa !22
  %10 = getelementptr inbounds nuw %struct.ShowWavesContext, ptr %9, i32 0, i32 10
  call void @av_frame_free(ptr noundef %10)
  %11 = load ptr, ptr %3, align 8, !tbaa !22
  %12 = getelementptr inbounds nuw %struct.ShowWavesContext, ptr %11, i32 0, i32 6
  call void @av_freep(ptr noundef %12)
  %13 = load ptr, ptr %3, align 8, !tbaa !22
  %14 = getelementptr inbounds nuw %struct.ShowWavesContext, ptr %13, i32 0, i32 7
  call void @av_freep(ptr noundef %14)
  %15 = load ptr, ptr %3, align 8, !tbaa !22
  %16 = getelementptr inbounds nuw %struct.ShowWavesContext, ptr %15, i32 0, i32 20
  call void @av_freep(ptr noundef %16)
  %17 = load ptr, ptr %3, align 8, !tbaa !22
  %18 = getelementptr inbounds nuw %struct.ShowWavesContext, ptr %17, i32 0, i32 23
  %19 = load i32, ptr %18, align 8, !tbaa !27
  %20 = icmp ne i32 %19, 0
  br i1 %20, label %21, label %40

21:                                               ; preds = %1
  call void @llvm.lifetime.start.p0(i64 8, ptr %4) #13
  %22 = load ptr, ptr %3, align 8, !tbaa !22
  %23 = getelementptr inbounds nuw %struct.ShowWavesContext, ptr %22, i32 0, i32 24
  %24 = load ptr, ptr %23, align 8, !tbaa !36
  store ptr %24, ptr %4, align 8, !tbaa !37
  br label %25

25:                                               ; preds = %28, %21
  %26 = load ptr, ptr %4, align 8, !tbaa !37
  %27 = icmp ne ptr %26, null
  br i1 %27, label %28, label %35

28:                                               ; preds = %25
  call void @llvm.lifetime.start.p0(i64 8, ptr %5) #13
  %29 = load ptr, ptr %4, align 8, !tbaa !37
  store ptr %29, ptr %5, align 8, !tbaa !37
  %30 = load ptr, ptr %4, align 8, !tbaa !37
  %31 = getelementptr inbounds nuw %struct.frame_node, ptr %30, i32 0, i32 1
  %32 = load ptr, ptr %31, align 8, !tbaa !38
  store ptr %32, ptr %4, align 8, !tbaa !37
  %33 = load ptr, ptr %5, align 8, !tbaa !37
  %34 = getelementptr inbounds nuw %struct.frame_node, ptr %33, i32 0, i32 0
  call void @av_frame_free(ptr noundef %34)
  call void @av_freep(ptr noundef %5)
  call void @llvm.lifetime.end.p0(i64 8, ptr %5) #13
  br label %25, !llvm.loop !40

35:                                               ; preds = %25
  %36 = load ptr, ptr %3, align 8, !tbaa !22
  %37 = getelementptr inbounds nuw %struct.ShowWavesContext, ptr %36, i32 0, i32 27
  call void @av_freep(ptr noundef %37)
  %38 = load ptr, ptr %3, align 8, !tbaa !22
  %39 = getelementptr inbounds nuw %struct.ShowWavesContext, ptr %38, i32 0, i32 25
  store ptr null, ptr %39, align 8, !tbaa !42
  call void @llvm.lifetime.end.p0(i64 8, ptr %4) #13
  br label %40

40:                                               ; preds = %35, %1
  call void @llvm.lifetime.end.p0(i64 8, ptr %3) #13
  ret void
}