; Function Attrs: cold nounwind optsize uwtable
define internal void @uninit(ptr noundef readonly captures(none) %0) #1 {
  %2 = alloca ptr, align 8
  %3 = getelementptr inbounds nuw i8, ptr %0, i64 72
  %4 = load ptr, ptr %3, align 8, !tbaa !22
  %5 = getelementptr inbounds nuw i8, ptr %4, i64 64
  tail call void @av_frame_free(ptr noundef nonnull %5) #17
  %6 = getelementptr inbounds nuw i8, ptr %4, i64 40
  tail call void @av_freep(ptr noundef nonnull %6) #17
  %7 = getelementptr inbounds nuw i8, ptr %4, i64 48
  tail call void @av_freep(ptr noundef nonnull %7) #17
  %8 = getelementptr inbounds nuw i8, ptr %4, i64 120
  tail call void @av_freep(ptr noundef nonnull %8) #17
  %9 = getelementptr inbounds nuw i8, ptr %4, i64 144
  %10 = load i32, ptr %9, align 8, !tbaa !23
  %.not = icmp eq i32 %10, 0
  br i1 %.not, label %18, label %11

11:                                               ; preds = %1
  %12 = getelementptr inbounds nuw i8, ptr %4, i64 152
  %13 = load ptr, ptr %12, align 8, !tbaa !32
  %.not1213 = icmp eq ptr %13, null
  br i1 %.not1213, label %._crit_edge, label %.lr.ph

.lr.ph:                                           ; preds = %11, %.lr.ph
  %.014 = phi ptr [ %15, %.lr.ph ], [ %13, %11 ]
  call void @llvm.lifetime.start.p0(i64 8, ptr nonnull %2) #17
  store ptr %.014, ptr %2, align 8, !tbaa !33
  %14 = getelementptr inbounds nuw i8, ptr %.014, i64 8
  %15 = load ptr, ptr %14, align 8, !tbaa !34
  call void @av_frame_free(ptr noundef nonnull %.014) #17
  call void @av_freep(ptr noundef nonnull %2) #17
  call void @llvm.lifetime.end.p0(i64 8, ptr nonnull %2) #17
  %.not12 = icmp eq ptr %15, null
  br i1 %.not12, label %._crit_edge, label %.lr.ph, !llvm.loop !36

._crit_edge:                                      ; preds = %.lr.ph, %11
  %16 = getelementptr inbounds nuw i8, ptr %4, i64 176
  call void @av_freep(ptr noundef nonnull %16) #17
  %17 = getelementptr inbounds nuw i8, ptr %4, i64 160
  store ptr null, ptr %17, align 8, !tbaa !38
  br label %18

18:                                               ; preds = %._crit_edge, %1
  ret void
}